Certificate:
    Data:
        Version: 3 (0x2)
        Serial Number:
            d5:48:26:1e:e7:a4:aa:62:c3:38:25:be:5a:1e:e7:d2
        Signature Algorithm: sha256WithRSAEncryption
        Issuer: CN=Easy-RSA CA
        Validity
            Not Before: Jul 23 11:12:31 2024 GMT
            Not After : Oct 26 11:12:31 2026 GMT
        Subject: CN=client1
        Subject Public Key Info:
            Public Key Algorithm: rsaEncryption
                Public-Key: (2048 bit)
                Modulus:
                    00:da:f6:81:a1:63:5c:00:7a:3b:f2:65:27:e8:63:
                    f2:f8:9f:7b:54:91:5b:73:9a:85:10:b0:e3:40:bf:
                    04:2b:29:e5:55:f8:ec:39:3b:57:cc:be:04:92:6c:
                    db:61:32:b1:9b:21:1d:d3:c6:2e:a5:c0:45:8a:bb:
                    f2:a7:58:70:03:3e:a0:12:a5:cf:33:12:f3:45:8a:
                    2a:4e:17:1e:ad:95:43:07:40:d9:10:79:53:df:82:
                    99:72:e0:6f:62:67:b8:ac:99:4e:49:e0:05:c8:e9:
                    3e:cd:37:b5:90:d0:42:1b:b9:16:20:f9:77:f3:b0:
                    d9:cb:7e:2c:a5:41:38:1b:5f:e2:60:fb:8c:36:26:
                    18:11:8e:5a:a4:fb:66:24:eb:92:1b:b1:36:9f:ce:
                    2a:08:6c:b2:d3:0a:90:35:9f:7f:eb:46:e8:79:fa:
                    6c:2d:5a:e4:d8:3f:43:0e:6d:c8:68:42:12:52:fb:
                    62:84:d7:2b:0c:55:5a:df:b3:20:ce:2c:9b:35:37:
                    f0:1a:77:59:d3:4b:d9:11:fa:8e:ac:6f:97:84:2f:
                    85:97:34:1e:3e:a4:6f:f7:45:ce:26:35:5b:67:02:
                    08:ad:b0:10:df:30:4e:58:6e:b9:29:de:6d:55:b1:
                    e5:1d:e9:98:9c:7d:2c:af:77:f7:5a:fa:10:ea:d5:
                    5d:fd
                Exponent: 65537 (0x10001)
        X509v3 extensions:
            X509v3 Basic Constraints: 
                CA:FALSE
            X509v3 Subject Key Identifier: 
                E0:9C:19:54:92:8B:32:3D:09:05:BC:AC:A9:F6:1A:0D:58:5F:EA:4F
            X509v3 Authority Key Identifier: 
                keyid:0E:F7:FA:F6:4A:14:C6:80:70:00:23:60:43:00:0E:B4:A4:CB:6C:9D
                DirName:/CN=Easy-RSA CA
                serial:21:8F:2F:81:46:DB:17:32:E5:8E:9F:A9:53:35:9C:77:C6:60:21:4F
            X509v3 Extended Key Usage: 
                TLS Web Client Authentication
            X509v3 Key Usage: 
                Digital Signature
    Signature Algorithm: sha256WithRSAEncryption
    Signature Value:
        86:17:a6:61:c6:ff:78:79:d0:9a:cf:ae:58:48:91:7d:cc:fd:
        90:5c:ea:bf:b7:be:7b:db:3c:e0:57:4c:66:8a:0d:ab:7c:10:
        8c:54:62:10:9e:5c:df:fe:a2:88:1c:f9:37:1f:05:05:bd:1d:
        33:f6:6e:7e:d7:95:d8:5b:01:f3:6c:b0:7e:30:5e:a3:4d:bc:
        18:17:13:4e:00:68:99:a6:a4:ac:9d:f0:10:3c:69:86:5d:e3:
        ce:51:7b:cc:f7:06:22:2b:ba:7d:4d:85:a8:ff:10:32:09:88:
        3d:d6:f3:0b:d3:53:b0:a3:4d:ea:1e:44:8f:f7:45:c6:dc:7b:
        a0:d6:8f:30:66:6d:28:16:3b:0f:61:01:51:f6:76:bc:c0:85:
        90:ea:de:d4:90:20:11:af:e5:09:a0:f9:6a:58:b2:2c:1a:74:
        44:18:4a:56:4e:77:3e:8d:7b:6c:b4:ea:95:7b:70:64:e0:f0:
        74:b0:07:8c:53:50:46:a3:07:70:f5:76:f9:a1:1f:78:62:96:
        28:6f:e8:cf:5d:58:e6:2d:c2:75:b3:8a:43:66:d1:1c:b1:82:
        e2:55:01:4c:43:40:ea:cc:b2:90:5f:0f:8b:78:1d:38:b4:83:
        f5:db:ff:43:70:1b:7d:41:47:57:26:b2:25:32:3f:12:25:ac:
        c4:ea:70:88
-----BEGIN CERTIFICATE-----
MIIDVjCCAj6gAwIBAgIRANVIJh7npKpiwzglvloe59IwDQYJKoZIhvcNAQELBQAw
FjEUMBIGA1UEAwwLRWFzeS1SU0EgQ0EwHhcNMjQwNzIzMTExMjMxWhcNMjYxMDI2
MTExMjMxWjASMRAwDgYDVQQDDAdjbGllbnQxMIIBIjANBgkqhkiG9w0BAQEFAAOC
AQ8AMIIBCgKCAQEA2vaBoWNcAHo78mUn6GPy+J97VJFbc5qFELDjQL8EKynlVfjs
OTtXzL4EkmzbYTKxmyEd08YupcBFirvyp1hwAz6gEqXPMxLzRYoqThcerZVDB0DZ
EHlT34KZcuBvYme4rJlOSeAFyOk+zTe1kNBCG7kWIPl387DZy34spUE4G1/iYPuM
NiYYEY5apPtmJOuSG7E2n84qCGyy0wqQNZ9/60boefpsLVrk2D9DDm3IaEISUvti
hNcrDFVa37MgziybNTfwGndZ00vZEfqOrG+XhC+FlzQePqRv90XOJjVbZwIIrbAQ
3zBOWG65Kd5tVbHlHemYnH0sr3f3WvoQ6tVd/QIDAQABo4GiMIGfMAkGA1UdEwQC
MAAwHQYDVR0OBBYEFOCcGVSSizI9CQW8rKn2Gg1YX+pPMFEGA1UdIwRKMEiAFA73
+vZKFMaAcAAjYEMADrSky2ydoRqkGDAWMRQwEgYDVQQDDAtFYXN5LVJTQSBDQYIU
IY8vgUbbFzLljp+pUzWcd8ZgIU8wEwYDVR0lBAwwCgYIKwYBBQUHAwIwCwYDVR0P
BAQDAgeAMA0GCSqGSIb3DQEBCwUAA4IBAQCGF6Zhxv94edCaz65YSJF9zP2QXOq/
t7572zzgV0xmig2rfBCMVGIQnlzf/qKIHPk3HwUFvR0z9m5+15XYWwHzbLB+MF6j
TbwYFxNOAGiZpqSsnfAQPGmGXePOUXvM9wYiK7p9TYWo/xAyCYg91vML01Owo03q
HkSP90XG3Hug1o8wZm0oFjsPYQFR9na8wIWQ6t7UkCARr+UJoPlqWLIsGnREGEpW
Tnc+jXtstOqVe3Bk4PB0sAeMU1BGowdw9Xb5oR94YpYob+jPXVjmLcJ1s4pDZtEc
sYLiVQFMQ0DqzLKQXw+LeB04tIP12/9DcBt9QUdXJrIlMj8SJazE6nCI
-----END CERTIFICATE-----
